; Function Attrs: mustprogress nounwind uwtable
define internal fastcc void @_ZN6hermes12_GLOBAL__N_15GenJS5visitEPNS_6ESTree20DoWhileStatementNodeE(ptr noundef nonnull align 8 captures(none) dereferenceable(16) %this, ptr noundef readonly captures(none) %node) unnamed_addr #0 align 2 {
entry:
  %0 = load ptr, ptr %this, align 8
  %OutBufEnd.i5.i = getelementptr inbounds nuw i8, ptr %0, i64 16
  %1 = load ptr, ptr %OutBufEnd.i5.i, align 8
  %OutBufCur.i6.i = getelementptr inbounds nuw i8, ptr %0, i64 24
  %2 = load ptr, ptr %OutBufCur.i6.i, align 8
  %sub.ptr.lhs.cast.i7.i = ptrtoint ptr %1 to i64
  %sub.ptr.rhs.cast.i8.i = ptrtoint ptr %2 to i64
  %sub.ptr.sub.i9.i = sub i64 %sub.ptr.lhs.cast.i7.i, %sub.ptr.rhs.cast.i8.i
  %cmp.i.i = icmp ult i64 %sub.ptr.sub.i9.i, 2
  br i1 %cmp.i.i, label %if.then.i.i, label %if.then4.i.i

if.then.i.i:                                      ; preds = %entry
  %call3.i.i = tail call noundef nonnull align 8 dereferenceable(36) ptr @_ZN4llvh11raw_ostream5writeEPKcm(ptr noundef nonnull align 8 dereferenceable(36) %0, ptr noundef nonnull @.str.273, i64 noundef 2) #12
  br label %_ZN4llvh11raw_ostreamlsEPKc.exit

if.then4.i.i:                                     ; preds = %entry
  store i16 28516, ptr %2, align 1
  %3 = load ptr, ptr %OutBufCur.i6.i, align 8
  %add.ptr.i.i = getelementptr inbounds nuw i8, ptr %3, i64 2
  store ptr %add.ptr.i.i, ptr %OutBufCur.i6.i, align 8
  br label %_ZN4llvh11raw_ostreamlsEPKc.exit

_ZN4llvh11raw_ostreamlsEPKc.exit:                 ; preds = %if.then.i.i, %if.then4.i.i
  %_body = getelementptr inbounds nuw i8, ptr %node, i64 56
  %4 = load ptr, ptr %_body, align 8
  %call2 = tail call fastcc noundef zeroext i1 @_ZN6hermes12_GLOBAL__N_15GenJS16visitStmtOrBlockEPNS_6ESTree4NodeEbS4_(ptr noundef nonnull align 8 dereferenceable(16) %this, ptr noundef %4, i1 noundef zeroext false)
  br i1 %call2, label %if.then, label %if.else

if.then:                                          ; preds = %_ZN4llvh11raw_ostreamlsEPKc.exit
  %5 = getelementptr inbounds nuw i8, ptr %this, i64 8
  %this.val6 = load i8, ptr %5, align 8
  %tobool2.i = trunc i8 %this.val6 to i1
  br i1 %tobool2.i, label %if.then.i, label %if.end

if.then.i:                                        ; preds = %if.then
  %this.val5 = load ptr, ptr %this, align 8
  %call.i = tail call noundef nonnull align 8 dereferenceable(36) ptr @_ZN4llvh11raw_ostream5writeEh(ptr noundef nonnull align 8 dereferenceable(36) %this.val5, i8 noundef zeroext 32) #12
  br label %if.end

if.else:                                          ; preds = %_ZN4llvh11raw_ostreamlsEPKc.exit
  %6 = load ptr, ptr %this, align 8
  %OutBufEnd.i5.i8 = getelementptr inbounds nuw i8, ptr %6, i64 16
  %7 = load ptr, ptr %OutBufEnd.i5.i8, align 8
  %OutBufCur.i6.i9 = getelementptr inbounds nuw i8, ptr %6, i64 24
  %8 = load ptr, ptr %OutBufCur.i6.i9, align 8
  %cmp.i.i13 = icmp eq ptr %7, %8
  br i1 %cmp.i.i13, label %if.then.i.i19, label %if.then4.i.i16

if.then.i.i19:                                    ; preds = %if.else
  %call3.i.i20 = tail call noundef nonnull align 8 dereferenceable(36) ptr @_ZN4llvh11raw_ostream5writeEPKcm(ptr noundef nonnull align 8 dereferenceable(36) %6, ptr noundef nonnull @.str.236, i64 noundef 1) #12
  br label %_ZN4llvh11raw_ostreamlsEPKc.exit21

if.then4.i.i16:                                   ; preds = %if.else
  store i8 59, ptr %8, align 1
  %9 = load ptr, ptr %OutBufCur.i6.i9, align 8
  %add.ptr.i.i17 = getelementptr inbounds nuw i8, ptr %9, i64 1
  store ptr %add.ptr.i.i17, ptr %OutBufCur.i6.i9, align 8
  br label %_ZN4llvh11raw_ostreamlsEPKc.exit21

_ZN4llvh11raw_ostreamlsEPKc.exit21:               ; preds = %if.then.i.i19, %if.then4.i.i16
  %pretty_.i = getelementptr inbounds nuw i8, ptr %this, i64 8
  %10 = load i8, ptr %pretty_.i, align 8
  %tobool.i = trunc i8 %10 to i1
  br i1 %tobool.i, label %if.then.i22, label %if.end

if.then.i22:                                      ; preds = %_ZN4llvh11raw_ostreamlsEPKc.exit21
  %11 = load ptr, ptr %this, align 8
  %call.i23 = tail call noundef nonnull align 8 dereferenceable(36) ptr @_ZN4llvh11raw_ostream5writeEh(ptr noundef nonnull align 8 dereferenceable(36) %11, i8 noundef zeroext 10) #12
  %indent_.i = getelementptr inbounds nuw i8, ptr %this, i64 12
  %12 = load i32, ptr %indent_.i, align 4
  %call2.i = tail call noundef nonnull align 8 dereferenceable(36) ptr @_ZN4llvh11raw_ostream6indentEj(ptr noundef nonnull align 8 dereferenceable(36) %call.i23, i32 noundef %12) #12
  br label %if.end

if.end:                                           ; preds = %if.then.i22, %_ZN4llvh11raw_ostreamlsEPKc.exit21, %if.then.i, %if.then
  %13 = load ptr, ptr %this, align 8
  %OutBufEnd.i5.i25 = getelementptr inbounds nuw i8, ptr %13, i64 16
  %14 = load ptr, ptr %OutBufEnd.i5.i25, align 8
  %OutBufCur.i6.i26 = getelementptr inbounds nuw i8, ptr %13, i64 24
  %15 = load ptr, ptr %OutBufCur.i6.i26, align 8
  %sub.ptr.lhs.cast.i7.i27 = ptrtoint ptr %14 to i64
  %sub.ptr.rhs.cast.i8.i28 = ptrtoint ptr %15 to i64
  %sub.ptr.sub.i9.i29 = sub i64 %sub.ptr.lhs.cast.i7.i27, %sub.ptr.rhs.cast.i8.i28
  %cmp.i.i30 = icmp ult i64 %sub.ptr.sub.i9.i29, 5
  br i1 %cmp.i.i30, label %if.then.i.i36, label %if.then4.i.i33

if.then.i.i36:                                    ; preds = %if.end
  %call3.i.i37 = tail call noundef nonnull align 8 dereferenceable(36) ptr @_ZN4llvh11raw_ostream5writeEPKcm(ptr noundef nonnull align 8 dereferenceable(36) %13, ptr noundef nonnull @.str.270, i64 noundef 5) #12
  br label %_ZN4llvh11raw_ostreamlsEPKc.exit38

if.then4.i.i33:                                   ; preds = %if.end
  tail call void @llvm.memcpy.p0.p0.i64(ptr noundef nonnull align 1 dereferenceable(5) %15, ptr noundef nonnull align 1 dereferenceable(5) @.str.270, i64 5, i1 false)
  %16 = load ptr, ptr %OutBufCur.i6.i26, align 8
  %add.ptr.i.i34 = getelementptr inbounds nuw i8, ptr %16, i64 5
  store ptr %add.ptr.i.i34, ptr %OutBufCur.i6.i26, align 8
  br label %_ZN4llvh11raw_ostreamlsEPKc.exit38

_ZN4llvh11raw_ostreamlsEPKc.exit38:               ; preds = %if.then.i.i36, %if.then4.i.i33
  %17 = getelementptr inbounds nuw i8, ptr %this, i64 8
  %this.val4 = load i8, ptr %17, align 8
  %tobool2.i39 = trunc i8 %this.val4 to i1
  br i1 %tobool2.i39, label %if.then.i40, label %_ZN6hermes12_GLOBAL__N_15GenJS5spaceEb.exit42

if.then.i40:                                      ; preds = %_ZN4llvh11raw_ostreamlsEPKc.exit38
  %this.val = load ptr, ptr %this, align 8
  %call.i41 = tail call noundef nonnull align 8 dereferenceable(36) ptr @_ZN4llvh11raw_ostream5writeEh(ptr noundef nonnull align 8 dereferenceable(36) %this.val, i8 noundef zeroext 32) #12
  br label %_ZN6hermes12_GLOBAL__N_15GenJS5spaceEb.exit42

_ZN6hermes12_GLOBAL__N_15GenJS5spaceEb.exit42:    ; preds = %_ZN4llvh11raw_ostreamlsEPKc.exit38, %if.then.i40
  %18 = load ptr, ptr %this, align 8
  %OutBufCur.i = getelementptr inbounds nuw i8, ptr %18, i64 24
  %19 = load ptr, ptr %OutBufCur.i, align 8
  %OutBufEnd.i = getelementptr inbounds nuw i8, ptr %18, i64 16
  %20 = load ptr, ptr %OutBufEnd.i, align 8
  %cmp.not.i = icmp ult ptr %19, %20
  br i1 %cmp.not.i, label %if.end.i, label %if.then.i43

if.then.i43:                                      ; preds = %_ZN6hermes12_GLOBAL__N_15GenJS5spaceEb.exit42
  %call.i44 = tail call noundef nonnull align 8 dereferenceable(36) ptr @_ZN4llvh11raw_ostream5writeEh(ptr noundef nonnull align 8 dereferenceable(36) %18, i8 noundef zeroext 40) #12
  br label %_ZN4llvh11raw_ostreamlsEc.exit

if.end.i:                                         ; preds = %_ZN6hermes12_GLOBAL__N_15GenJS5spaceEb.exit42
  %incdec.ptr.i = getelementptr inbounds nuw i8, ptr %19, i64 1
  store ptr %incdec.ptr.i, ptr %OutBufCur.i, align 8
  store i8 40, ptr %19, align 1
  br label %_ZN4llvh11raw_ostreamlsEc.exit

_ZN4llvh11raw_ostreamlsEc.exit:                   ; preds = %if.then.i43, %if.end.i
  %_test = getelementptr inbounds nuw i8, ptr %node, i64 64
  %21 = load ptr, ptr %_test, align 8
  tail call fastcc void @_ZN6hermes6ESTree24RecursiveVisitorDispatchINS_12_GLOBAL__N_15GenJSELb1EE5visitERS3_PNS0_4NodeES7_(ptr noundef nonnull align 8 dereferenceable(16) %this, ptr noundef %21)
  %22 = load ptr, ptr %this, align 8
  %OutBufCur.i46 = getelementptr inbounds nuw i8, ptr %22, i64 24
  %23 = load ptr, ptr %OutBufCur.i46, align 8
  %OutBufEnd.i47 = getelementptr inbounds nuw i8, ptr %22, i64 16
  %24 = load ptr, ptr %OutBufEnd.i47, align 8
  %cmp.not.i48 = icmp ult ptr %23, %24
  br i1 %cmp.not.i48, label %if.end.i52, label %if.then.i49

if.then.i49:                                      ; preds = %_ZN4llvh11raw_ostreamlsEc.exit
  %call.i50 = tail call noundef nonnull align 8 dereferenceable(36) ptr @_ZN4llvh11raw_ostream5writeEh(ptr noundef nonnull align 8 dereferenceable(36) %22, i8 noundef zeroext 41) #12
  br label %_ZN4llvh11raw_ostreamlsEc.exit54

if.end.i52:                                       ; preds = %_ZN4llvh11raw_ostreamlsEc.exit
  %incdec.ptr.i53 = getelementptr inbounds nuw i8, ptr %23, i64 1
  store ptr %incdec.ptr.i53, ptr %OutBufCur.i46, align 8
  store i8 41, ptr %23, align 1
  br label %_ZN4llvh11raw_ostreamlsEc.exit54

_ZN4llvh11raw_ostreamlsEc.exit54:                 ; preds = %if.then.i49, %if.end.i52
  ret void
}